#include <math.h>
#include <stdio.h>
#include <stdlib.h>
#include <string.h>





int mystrcmp(char* str1,char* str2,int lens)
{
    for(int i=0;i<lens;i++)
            if(*(str1+i)!=*(str2+i))return 0;
    return 1;
}

int main()
{
    char big[50],small[50];
    scanf("%s %s",small,big);
    int l=strlen(small);
    for(int k=0;k<strlen(big)-l+1;k++)
            if(mystrcmp(big+k,small,l))
            {
                printf("%d\n",k);
                return 0;
            }

    printf("String Not Found");      
      
}